; Function Attrs: nounwind uwtable
define hidden range(i32 -1, 2) i32 @evbuffer_get_callbacks_(ptr noundef %0, ptr noundef writeonly captures(none) %1, i32 noundef %2) local_unnamed_addr #1 {
  %4 = getelementptr inbounds nuw i8, ptr %0, i64 56
  %5 = load ptr, ptr %4, align 8
  %.not = icmp eq ptr %5, null
  br i1 %.not, label %9, label %6

6:                                                ; preds = %3
  %7 = load ptr, ptr getelementptr inbounds nuw (i8, ptr @evthread_lock_fns_, i64 24), align 8
  %8 = tail call i32 %7(i32 noundef 0, ptr noundef nonnull %5) #16
  br label %9

9:                                                ; preds = %6, %3
  %10 = getelementptr inbounds nuw i8, ptr %0, i64 64
  %11 = load i8, ptr %10, align 8
  %12 = and i8 %11, 8
  %.not10 = icmp eq i8 %12, 0
  br i1 %.not10, label %17, label %13

13:                                               ; preds = %9
  %14 = icmp slt i32 %2, 1
  br i1 %14, label %17, label %15

15:                                               ; preds = %13
  %16 = getelementptr inbounds nuw i8, ptr %0, i64 88
  store ptr %16, ptr %1, align 8
  br label %17

17:                                               ; preds = %13, %9, %15
  %.0 = phi i32 [ 1, %15 ], [ 0, %9 ], [ -1, %13 ]
  %18 = load ptr, ptr %4, align 8
  %.not11 = icmp eq ptr %18, null
  br i1 %.not11, label %22, label %19

19:                                               ; preds = %17
  %20 = load ptr, ptr getelementptr inbounds nuw (i8, ptr @evthread_lock_fns_, i64 32), align 8
  %21 = tail call i32 %20(i32 noundef 0, ptr noundef nonnull %18) #16
  br label %22

22:                                               ; preds = %19, %17
  ret i32 %.0
}